(dp0
I0
S'Trump Supporter Tweets/RickPorvaznik.csv'
p1
sI1
S'Trump Supporter Tweets/ORiverway.csv'
p2
sI2
S'Trump Supporter Tweets/takari253.csv'
p3
sI3
S'Trump Supporter Tweets/SandraJenners.csv'
p4
sI4
S'Trump Supporter Tweets/ASemisch.csv'
p5
sI5
S'Trump Supporter Tweets/ScottRCarrick29.csv'
p6
sI6
S'Trump Supporter Tweets/SheltonMarie.csv'
p7
sI7
S'Trump Supporter Tweets/clasimpmv.csv'
p8
sI8
S'Trump Supporter Tweets/diann_ruth.csv'
p9
sI9
S'Trump Supporter Tweets/Jaysisawesome.csv'
p10
sI10
S'Trump Supporter Tweets/Richard27554006.csv'
p11
sI11
S'Trump Supporter Tweets/lmLauraFlyMe.csv'
p12
sI12
S'Trump Supporter Tweets/MechlingMike.csv'
p13
sI13
S'Trump Supporter Tweets/Trump2016C.csv'
p14
sI14
S'Trump Supporter Tweets/BrettRains1.csv'
p15
sI15
S'Trump Supporter Tweets/RPZak0.csv'
p16
sI16
S'Trump Supporter Tweets/BHWTC.csv'
p17
sI17
S'Trump Supporter Tweets/A1speaker.csv'
p18
sI18
S'Trump Supporter Tweets/billyr0256.csv'
p19
sI19
S'Trump Supporter Tweets/CurmudgeonAce.csv'
p20
sI20
S'Trump Supporter Tweets/gracny.csv'
p21
sI21
S'Trump Supporter Tweets/falfiee.csv'
p22
sI22
S'Trump Supporter Tweets/andy1lowe.csv'
p23
sI23
S'Trump Supporter Tweets/joyreaper.csv'
p24
sI24
S'Trump Supporter Tweets/AnthonyCortese8.csv'
p25
sI25
S'Trump Supporter Tweets/MariellenTilden.csv'
p26
sI26
S'Trump Supporter Tweets/SoCal4Trump.csv'
p27
sI27
S'Trump Supporter Tweets/MaryMedrec1.csv'
p28
sI28
S'Trump Supporter Tweets/mgdmd1.csv'
p29
sI29
S'Trump Supporter Tweets/PUdaddy.csv'
p30
sI30
S'Trump Supporter Tweets/BirmanMichael.csv'
p31
sI31
S'Trump Supporter Tweets/Andywil84427188.csv'
p32
sI32
S'Trump Supporter Tweets/m_lonz.csv'
p33
sI33
S'Trump Supporter Tweets/Voice777desert.csv'
p34
sI34
S'Trump Supporter Tweets/greatgoats4.csv'
p35
sI35
S'Trump Supporter Tweets/GiGito31959.csv'
p36
sI36
S'Trump Supporter Tweets/floydtire_sonny.csv'
p37
sI37
S'Trump Supporter Tweets/Dawg4854.csv'
p38
sI38
S'Trump Supporter Tweets/salted3.csv'
p39
sI39
S'Trump Supporter Tweets/cherry_bethea.csv'
p40
sI40
S'Trump Supporter Tweets/Az9er.csv'
p41
sI41
S'Trump Supporter Tweets/JohnGab69864771.csv'
p42
sI42
S'Trump Supporter Tweets/BioExcel_Philly.csv'
p43
sI43
S'Trump Supporter Tweets/comfort_dawn.csv'
p44
sI44
S'Trump Supporter Tweets/Belle_of_love.csv'
p45
sI45
S'Trump Supporter Tweets/landsend99.csv'
p46
sI46
S'Trump Supporter Tweets/Mimau.csv'
p47
sI47
S'Trump Supporter Tweets/Waldoni.csv'
p48
sI48
S'Trump Supporter Tweets/edhealey31.csv'
p49
sI49
S'Trump Supporter Tweets/SmythRadio.csv'
p50
sI50
S'Trump Supporter Tweets/vjsor816.csv'
p51
sI51
S'Trump Supporter Tweets/gcamp4.csv'
p52
sI52
S'Trump Supporter Tweets/PatriciaFlyn2Lo.csv'
p53
sI53
S'Trump Supporter Tweets/RealPoliticsOp.csv'
p54
sI54
S'Trump Supporter Tweets/natalieportwood.csv'
p55
sI55
S'Trump Supporter Tweets/sherrylion3309.csv'
p56
sI56
S'Trump Supporter Tweets/TimSteve357.csv'
p57
sI57
S'Trump Supporter Tweets/SandraR14676287.csv'
p58
sI58
S'Trump Supporter Tweets/arknightdale.csv'
p59
sI59
S'Trump Supporter Tweets/SmithLeshia.csv'
p60
sI60
S'Trump Supporter Tweets/nancyerkencomca.csv'
p61
sI61
S'Trump Supporter Tweets/LynnetaM.csv'
p62
sI62
S'Trump Supporter Tweets/letsgetupsidedw.csv'
p63
sI63
S'Trump Supporter Tweets/PondJim.csv'
p64
sI64
S'Trump Supporter Tweets/SMW5683.csv'
p65
sI65
S'Trump Supporter Tweets/reviloz2.csv'
p66
sI66
S'Trump Supporter Tweets/Jyroflux.csv'
p67
sI67
S'Trump Supporter Tweets/Bev88995537.csv'
p68
sI68
S'Trump Supporter Tweets/bbixby224.csv'
p69
sI69
S'Trump Supporter Tweets/BowlerWossene.csv'
p70
sI70
S'Trump Supporter Tweets/1974lollo.csv'
p71
sI71
S'Trump Supporter Tweets/Rvogt1_cba.csv'
p72
sI72
S'Trump Supporter Tweets/Cryogenik28.csv'
p73
sI73
S'Trump Supporter Tweets/NHMommy1.csv'
p74
sI74
S'Trump Supporter Tweets/Dylanesque2604.csv'
p75
sI75
S'Trump Supporter Tweets/ConservativeGM.csv'
p76
sI76
S'Trump Supporter Tweets/UNBgallon.csv'
p77
sI77
S'Trump Supporter Tweets/cjTNVol.csv'
p78
sI78
S'Trump Supporter Tweets/john_dipaolo.csv'
p79
sI79
S'Trump Supporter Tweets/PigGrease.csv'
p80
sI80
S'Trump Supporter Tweets/mimi_saulino.csv'
p81
sI81
S'Trump Supporter Tweets/kmcdev2.csv'
p82
sI82
S'Trump Supporter Tweets/nathanpaul1975.csv'
p83
sI83
S'Trump Supporter Tweets/laureenlt123.csv'
p84
sI84
S'Trump Supporter Tweets/DeborahLojive.csv'
p85
sI85
S'Trump Supporter Tweets/CalebDHurt1.csv'
p86
sI86
S'Trump Supporter Tweets/valley_gun.csv'
p87
sI87
S'Trump Supporter Tweets/32gipad.csv'
p88
sI88
S'Trump Supporter Tweets/TheWallofTrump.csv'
p89
sI89
S'Trump Supporter Tweets/mboshearsperry.csv'
p90
sI90
S'Trump Supporter Tweets/FreeLifesMatter.csv'
p91
sI91
S'Trump Supporter Tweets/Bass705.csv'
p92
sI92
S'Trump Supporter Tweets/KrautMike.csv'
p93
sI93
S'Trump Supporter Tweets/JohnOkoch.csv'
p94
sI94
S'Trump Supporter Tweets/America1stAgain.csv'
p95
sI95
S'Trump Supporter Tweets/HalBankston.csv'
p96
sI96
S'Trump Supporter Tweets/BrandonLRader.csv'
p97
sI97
S'Trump Supporter Tweets/TanyaMayfield1.csv'
p98
sI98
S'Trump Supporter Tweets/ChrisKyle02.csv'
p99
sI99
S'Trump Supporter Tweets/SonnyTfoth.csv'
p100
sI100
S'Trump Supporter Tweets/WolfeDavis210.csv'
p101
sI101
S'Trump Supporter Tweets/Tresaann70.csv'
p102
sI102
S'Trump Supporter Tweets/Alecmecox.csv'
p103
sI103
S'Trump Supporter Tweets/lmirandabermud1.csv'
p104
sI104
S'Trump Supporter Tweets/AmboyCattsu.csv'
p105
sI105
S'Trump Supporter Tweets/crossskye1.csv'
p106
sI106
S'Trump Supporter Tweets/GMDMartyr.csv'
p107
sI107
S'Trump Supporter Tweets/PCgodUSA.csv'
p108
sI108
S'Trump Supporter Tweets/gibsonart.csv'
p109
sI109
S'Trump Supporter Tweets/KBrocking.csv'
p110
sI110
S'Trump Supporter Tweets/feduppainter.csv'
p111
sI111
S'Trump Supporter Tweets/Pierre101066.csv'
p112
sI112
S'Trump Supporter Tweets/Noindoctrinate.csv'
p113
sI113
S'Trump Supporter Tweets/Dauber8.csv'
p114
sI114
S'Trump Supporter Tweets/Nelsonpaitience.csv'
p115
sI115
S'Trump Supporter Tweets/JHaystrand.csv'
p116
sI116
S'Trump Supporter Tweets/x4PITTS1BURGH2x.csv'
p117
sI117
S'Trump Supporter Tweets/BHLiberty.csv'
p118
sI118
S'Trump Supporter Tweets/sbernsteinrn.csv'
p119
sI119
S'Trump Supporter Tweets/lakwita2.csv'
p120
sI120
S'Trump Supporter Tweets/waynecourville.csv'
p121
sI121
S'Trump Supporter Tweets/534th.csv'
p122
sI122
S'Trump Supporter Tweets/dovorah001.csv'
p123
sI123
S'Trump Supporter Tweets/connie_yoe.csv'
p124
sI124
S'Trump Supporter Tweets/gaptooth28.csv'
p125
sI125
S'Trump Supporter Tweets/curtandkaren.csv'
p126
sI126
S'Trump Supporter Tweets/IMAA2747.csv'
p127
sI127
S'Trump Supporter Tweets/Zeus191145.csv'
p128
sI128
S'Trump Supporter Tweets/JoyBuzz66.csv'
p129
sI129
S'Trump Supporter Tweets/mmalone62.csv'
p130
sI130
S'Trump Supporter Tweets/jopchu22.csv'
p131
sI131
S'Trump Supporter Tweets/seasidebeauty7.csv'
p132
sI132
S'Trump Supporter Tweets/DeloyWilkerson.csv'
p133
sI133
S'Trump Supporter Tweets/S5OKT.csv'
p134
sI134
S'Trump Supporter Tweets/lanell_nelson.csv'
p135
sI135
S'Trump Supporter Tweets/rebernas1.csv'
p136
sI136
S'Trump Supporter Tweets/MikeCommander2.csv'
p137
sI137
S'Trump Supporter Tweets/michaelpshipley.csv'
p138
sI138
S'Trump Supporter Tweets/ballouJohnA.csv'
p139
sI139
S'Trump Supporter Tweets/AliceAachurc.csv'
p140
sI140
S'Trump Supporter Tweets/donaldpirl.csv'
p141
sI141
S'Trump Supporter Tweets/lawson1484.csv'
p142
sI142
S'Trump Supporter Tweets/Politicallyin18.csv'
p143
sI143
S'Trump Supporter Tweets/repubfan.csv'
p144
sI144
S'Trump Supporter Tweets/sarahdurband.csv'
p145
sI145
S'Trump Supporter Tweets/C4Constitution.csv'
p146
sI146
S'Trump Supporter Tweets/Zelidasquare.csv'
p147
sI147
S'Trump Supporter Tweets/NRodibaugh.csv'
p148
sI148
S'Trump Supporter Tweets/HubbsJim.csv'
p149
sI149
S'Trump Supporter Tweets/Pattytidwell3.csv'
p150
sI150
S'Trump Supporter Tweets/Hay09317403Paul.csv'
p151
sI151
S'Trump Supporter Tweets/Georgermcgrath2.csv'
p152
sI152
S'Trump Supporter Tweets/OlgaOlgamsmith.csv'
p153
sI153
S'Trump Supporter Tweets/KAnnieC.csv'
p154
sI154
S'Trump Supporter Tweets/Chatman7Donna.csv'
p155
sI155
S'Trump Supporter Tweets/TheKrankyGirl.csv'
p156
sI156
S'Trump Supporter Tweets/old_salt54.csv'
p157
sI157
S'Trump Supporter Tweets/SteveButcher13.csv'
p158
sI158
S'Trump Supporter Tweets/chiefragingbull.csv'
p159
sI159
S'Trump Supporter Tweets/timps15.csv'
p160
sI160
S'Trump Supporter Tweets/BuchmanCraig.csv'
p161
sI161
S'Trump Supporter Tweets/Kaladious.csv'
p162
sI162
S'Trump Supporter Tweets/sjosandi.csv'
p163
sI163
S'Trump Supporter Tweets/Thatsalrighty.csv'
p164
sI164
S'Trump Supporter Tweets/MRMitchnet.csv'
p165
sI165
S'Trump Supporter Tweets/bashcroft16.csv'
p166
sI166
S'Trump Supporter Tweets/circuitsurgeon.csv'
p167
sI167
S'Trump Supporter Tweets/beavostevo.csv'
p168
sI168
S'Trump Supporter Tweets/suenoe2.csv'
p169
sI169
S'Trump Supporter Tweets/JaneHayes31527.csv'
p170
sI170
S'Trump Supporter Tweets/ldog70.csv'
p171
sI171
S'Trump Supporter Tweets/StargateWindlow.csv'
p172
sI172
S'Trump Supporter Tweets/beaujolais1.csv'
p173
sI173
S'Trump Supporter Tweets/DonnaLedford8.csv'
p174
sI174
S'Trump Supporter Tweets/black_fire_opal.csv'
p175
sI175
S'Trump Supporter Tweets/rantress.csv'
p176
sI176
S'Trump Supporter Tweets/DonPettygrove.csv'
p177
sI177
S'Trump Supporter Tweets/jayh2800.csv'
p178
sI178
S'Trump Supporter Tweets/Haela_Medina.csv'
p179
sI179
S'Trump Supporter Tweets/joyanimus.csv'
p180
sI180
S'Trump Supporter Tweets/MarlenePetoskey.csv'
p181
sI181
S'Trump Supporter Tweets/WWDBLane.csv'
p182
sI182
S'Trump Supporter Tweets/HarryRoolaart1.csv'
p183
sI183
S'Trump Supporter Tweets/Ajax2847.csv'
p184
sI184
S'Trump Supporter Tweets/nieveslazurda.csv'
p185
sI185
S'Trump Supporter Tweets/lelapollock.csv'
p186
sI186
S'Trump Supporter Tweets/grndpam.csv'
p187
sI187
S'Trump Supporter Tweets/808alohadeals.csv'
p188
sI188
S'Trump Supporter Tweets/rjjj5thavenw.csv'
p189
sI189
S'Trump Supporter Tweets/KathyCeurter.csv'
p190
sI190
S'Trump Supporter Tweets/cwelady.csv'
p191
sI191
S'Trump Supporter Tweets/JamesSaporito.csv'
p192
sI192
S'Trump Supporter Tweets/EyeCandyTMGayle.csv'
p193
sI193
S'Trump Supporter Tweets/johnnyreb1864.csv'
p194
sI194
S'Trump Supporter Tweets/valleywebMEDIA.csv'
p195
sI195
S'Trump Supporter Tweets/SharonRobert99.csv'
p196
sI196
S'Trump Supporter Tweets/cajun032759.csv'
p197
sI197
S'Trump Supporter Tweets/cubfandan17.csv'
p198
sI198
S'Trump Supporter Tweets/MercyL0V3.csv'
p199
sI199
S'Trump Supporter Tweets/JBJunior824.csv'
p200
sI200
S'Trump Supporter Tweets/CastileLeonda.csv'
p201
sI201
S'Trump Supporter Tweets/DavisDmnieves.csv'
p202
sI202
S'Trump Supporter Tweets/tofiesty4u.csv'
p203
sI203
S'Trump Supporter Tweets/JennieHolland61.csv'
p204
sI204
S'Trump Supporter Tweets/Kriki32.csv'
p205
sI205
S'Trump Supporter Tweets/PaulaBr38941860.csv'
p206
sI206
S'Trump Supporter Tweets/Courtneycat810.csv'
p207
sI207
S'Trump Supporter Tweets/sudischuricht.csv'
p208
sI208
S'Trump Supporter Tweets/hg9703.csv'
p209
sI209
S'Trump Supporter Tweets/teekat1.csv'
p210
sI210
S'Trump Supporter Tweets/Jules4ndDavis.csv'
p211
sI211
S'Trump Supporter Tweets/JenniferStrby.csv'
p212
sI212
S'Trump Supporter Tweets/colleengourd.csv'
p213
sI213
S'Trump Supporter Tweets/angels8000.csv'
p214
sI214
S'Trump Supporter Tweets/asamjulian.csv'
p215
sI215
S'Trump Supporter Tweets/jmdonsi.csv'
p216
sI216
S'Trump Supporter Tweets/DanaAwas.csv'
p217
sI217
S'Trump Supporter Tweets/shadohchaser.csv'
p218
sI218
S'Trump Supporter Tweets/theo9873501.csv'
p219
sI219
S'Trump Supporter Tweets/ScreenFormat.csv'
p220
sI220
S'Trump Supporter Tweets/jennysuolang.csv'
p221
sI221
S'Trump Supporter Tweets/miachica.csv'
p222
sI222
S'Trump Supporter Tweets/Gabbysings2.csv'
p223
sI223
S'Trump Supporter Tweets/screwlibs21.csv'
p224
sI224
S'Trump Supporter Tweets/Scts5163Scott.csv'
p225
sI225
S'Trump Supporter Tweets/evie121462.csv'
p226
sI226
S'Trump Supporter Tweets/TrumpSelfFunds.csv'
p227
sI227
S'Trump Supporter Tweets/cameronmac1951.csv'
p228
sI228
S'Trump Supporter Tweets/jmg66_.csv'
p229
sI229
S'Trump Supporter Tweets/VickyBrush.csv'
p230
sI230
S'Trump Supporter Tweets/tluvgolf.csv'
p231
sI231
S'Trump Supporter Tweets/PrincessMerican.csv'
p232
sI232
S'Trump Supporter Tweets/jstevenallen.csv'
p233
sI233
S'Trump Supporter Tweets/SusanJoelson.csv'
p234
sI234
S'Trump Supporter Tweets/Scrufey21.csv'
p235
sI235
S'Trump Supporter Tweets/reddog_1954.csv'
p236
sI236
S'Trump Supporter Tweets/investigationdi.csv'
p237
sI237
S'Trump Supporter Tweets/prlitwhboy.csv'
p238
sI238
S'Trump Supporter Tweets/glassyelegance.csv'
p239
sI239
S'Trump Supporter Tweets/JStoddardYoung1.csv'
p240
sI240
S'Trump Supporter Tweets/Jamesfarrah2.csv'
p241
sI241
S'Trump Supporter Tweets/Trump5254.csv'
p242
sI242
S'Trump Supporter Tweets/jazzy75123177.csv'
p243
sI243
S'Trump Supporter Tweets/Andrea_peppa.csv'
p244
sI244
S'Trump Supporter Tweets/Carolde.csv'
p245
sI245
S'Trump Supporter Tweets/TheTruth4us.csv'
p246
sI246
S'Trump Supporter Tweets/RickElamArtist.csv'
p247
sI247
S'Trump Supporter Tweets/Got2bTrump.csv'
p248
sI248
S'Trump Supporter Tweets/evansanni1.csv'
p249
sI249
S'Trump Supporter Tweets/ravenkitty57.csv'
p250
sI250
S'Trump Supporter Tweets/wyomobe.csv'
p251
sI251
S'Trump Supporter Tweets/FriendlyJMC.csv'
p252
sI252
S'Trump Supporter Tweets/sunnyallamerica.csv'
p253
sI253
S'Trump Supporter Tweets/irinasontag.csv'
p254
sI254
S'Trump Supporter Tweets/NWGreenApple.csv'
p255
sI255
S'Trump Supporter Tweets/melblack1003.csv'
p256
sI256
S'Trump Supporter Tweets/MzVelmaBeasley.csv'
p257
sI257
S'Trump Supporter Tweets/jimboazil.csv'
p258
sI258
S'Trump Supporter Tweets/TheTurpens.csv'
p259
sI259
S'Trump Supporter Tweets/MuppetV2.csv'
p260
sI260
S'Trump Supporter Tweets/Richard01702798.csv'
p261
sI261
S'Trump Supporter Tweets/MarieMa49685063.csv'
p262
sI262
S'Trump Supporter Tweets/hopegambrel.csv'
p263
sI263
S'Trump Supporter Tweets/tomjeff5555.csv'
p264
sI264
S'Trump Supporter Tweets/LiAgashi.csv'
p265
sI265
S'Trump Supporter Tweets/ChapmanNancy.csv'
p266
sI266
S'Trump Supporter Tweets/leeshelby7.csv'
p267
sI267
S'Trump Supporter Tweets/NormanDeArmond.csv'
p268
sI268
S'Trump Supporter Tweets/shepley_cheryl.csv'
p269
sI269
S'Trump Supporter Tweets/jenjess70.csv'
p270
sI270
S'Trump Supporter Tweets/tooyoung65.csv'
p271
sI271
S'Trump Supporter Tweets/LegallyLatina.csv'
p272
sI272
S'Trump Supporter Tweets/workbench59.csv'
p273
sI273
S'Trump Supporter Tweets/tigersimon27.csv'
p274
sI274
S'Trump Supporter Tweets/tponcary.csv'
p275
sI275
S'Trump Supporter Tweets/g_66mpco.csv'
p276
sI276
S'Trump Supporter Tweets/SandraKH8.csv'
p277
sI277
S'Trump Supporter Tweets/puglover3817.csv'
p278
sI278
S'Trump Supporter Tweets/Bkvar2.csv'
p279
sI279
S'Trump Supporter Tweets/DianeDeeegot.csv'
p280
sI280
S'Trump Supporter Tweets/hale4jesus.csv'
p281
sI281
S'Trump Supporter Tweets/JoeyHarper11.csv'
p282
sI282
S'Trump Supporter Tweets/JahnBarris.csv'
p283
sI283
S'Trump Supporter Tweets/di8285502.csv'
p284
sI284
S'Trump Supporter Tweets/TheWalrusPrince.csv'
p285
sI285
S'Trump Supporter Tweets/ElrondAdama.csv'
p286
sI286
S'Trump Supporter Tweets/09BRAININJURY.csv'
p287
sI287
S'Trump Supporter Tweets/Alien5700.csv'
p288
sI288
S'Trump Supporter Tweets/MarcAardvark.csv'
p289
sI289
S'Trump Supporter Tweets/Dagny_Taggart78.csv'
p290
sI290
S'Trump Supporter Tweets/Jennifer_1965.csv'
p291
sI291
S'Trump Supporter Tweets/HelderenNuchter.csv'
p292
sI292
S'Trump Supporter Tweets/AmericanMex067.csv'
p293
sI293
S'Trump Supporter Tweets/pixiedust5135.csv'
p294
sI294
S'Trump Supporter Tweets/LatinoParaTrump.csv'
p295
sI295
S'Trump Supporter Tweets/1truecossack.csv'
p296
sI296
S'Trump Supporter Tweets/zoeziz.csv'
p297
sI297
S'Trump Supporter Tweets/LauraGriffin17.csv'
p298
sI298
S'Trump Supporter Tweets/go4marshall.csv'
p299
sI299
S'Trump Supporter Tweets/silentmajorityu.csv'
p300
sI300
S'Trump Supporter Tweets/SOS_1313.csv'
p301
sI301
S'Trump Supporter Tweets/VerumEstLiberta.csv'
p302
sI302
S'Trump Supporter Tweets/DixieAngel8.csv'
p303
sI303
S'Trump Supporter Tweets/JosephineMigli2.csv'
p304
sI304
S'Trump Supporter Tweets/shook_stephanie.csv'
p305
sI305
S'Trump Supporter Tweets/Pj4trump4us.csv'
p306
sI306
S'Trump Supporter Tweets/phloophie.csv'
p307
sI307
S'Trump Supporter Tweets/ijeanie2.csv'
p308
sI308
S'Trump Supporter Tweets/tponews.csv'
p309
sI309
S'Trump Supporter Tweets/johnrodney18.csv'
p310
sI310
S'Trump Supporter Tweets/LShrug.csv'
p311
sI311
S'Trump Supporter Tweets/stockpicker151.csv'
p312
sI312
S'Trump Supporter Tweets/Horseyacres.csv'
p313
sI313
S'Trump Supporter Tweets/brown_alston.csv'
p314
sI314
S'Trump Supporter Tweets/idawhannadoyou.csv'
p315
sI315
S'Trump Supporter Tweets/Bellajane127.csv'
p316
sI316
S'Trump Supporter Tweets/ThomasStahley.csv'
p317
sI317
S'Trump Supporter Tweets/ArchHighLord.csv'
p318
sI318
S'Trump Supporter Tweets/DianneInIndiana.csv'
p319
sI319
S'Trump Supporter Tweets/DarkStream.csv'
p320
sI320
S'Trump Supporter Tweets/nperrondmd.csv'
p321
sI321
S'Trump Supporter Tweets/prolifewill.csv'
p322
sI322
S'Trump Supporter Tweets/mkp594.csv'
p323
sI323
S'Trump Supporter Tweets/chickenlady246.csv'
p324
sI324
S'Trump Supporter Tweets/gailbuckley.csv'
p325
sI325
S'Trump Supporter Tweets/rueblakely.csv'
p326
sI326
S'Trump Supporter Tweets/mannreagan.csv'
p327
sI327
S'Trump Supporter Tweets/Bob_nunya.csv'
p328
sI328
S'Trump Supporter Tweets/Jen_N_Russ.csv'
p329
sI329
S'Trump Supporter Tweets/itzamadhouse.csv'
p330
sI330
S'Trump Supporter Tweets/2131de0aff25465.csv'
p331
sI331
S'Trump Supporter Tweets/TDsVoice.csv'
p332
sI332
S'Trump Supporter Tweets/Whitney19641640.csv'
p333
sI333
S'Trump Supporter Tweets/robertinccnv1.csv'
p334
sI334
S'Trump Supporter Tweets/rfscottga.csv'
p335
sI335
S'Trump Supporter Tweets/babysgramma.csv'
p336
sI336
S'Trump Supporter Tweets/Jerzeee4Trump.csv'
p337
sI337
S'Trump Supporter Tweets/Karen05866992.csv'
p338
sI338
S'Trump Supporter Tweets/tat2mark58.csv'
p339
sI339
S'Trump Supporter Tweets/AprilRobinson26.csv'
p340
sI340
S'Trump Supporter Tweets/hoosierkid63.csv'
p341
sI341
S'Trump Supporter Tweets/WinkFlyer.csv'
p342
sI342
S'Trump Supporter Tweets/debstaf3.csv'
p343
sI343
S'Trump Supporter Tweets/ObserverWithout.csv'
p344
sI344
S'Trump Supporter Tweets/shagsterjo.csv'
p345
sI345
S'Trump Supporter Tweets/agatha290.csv'
p346
sI346
S'Trump Supporter Tweets/mrntweet.csv'
p347
sI347
S'Trump Supporter Tweets/respectthetowel.csv'
p348
sI348
S'Trump Supporter Tweets/HenryOray.csv'
p349
sI349
S'Trump Supporter Tweets/WalterCallahan1.csv'
p350
sI350
S'Trump Supporter Tweets/angeladietrich1.csv'
p351
sI351
S'Trump Supporter Tweets/abrinkman84.csv'
p352
sI352
S'Trump Supporter Tweets/amockeryofdemo1.csv'
p353
sI353
S'Trump Supporter Tweets/PennyHicks13.csv'
p354
sI354
S'Trump Supporter Tweets/robinjames19651.csv'
p355
sI355
S'Trump Supporter Tweets/tinkitk.csv'
p356
sI356
S'Trump Supporter Tweets/csirigiano.csv'
p357
sI357
S'Trump Supporter Tweets/RichardWRamsey.csv'
p358
sI358
S'Trump Supporter Tweets/corina6977.csv'
p359
sI359
S'Trump Supporter Tweets/Chazmo760.csv'
p360
sI360
S'Trump Supporter Tweets/JudithVGodwin1.csv'
p361
sI361
S'Trump Supporter Tweets/FedoraPayan.csv'
p362
sI362
S'Trump Supporter Tweets/ClintFord06.csv'
p363
sI363
S'Trump Supporter Tweets/HelenbButcher.csv'
p364
sI364
S'Trump Supporter Tweets/chadmorse.csv'
p365
sI365
S'Trump Supporter Tweets/RepublicanAfro.csv'
p366
sI366
S'Trump Supporter Tweets/sharir_b.csv'
p367
sI367
S'Trump Supporter Tweets/soonerplace.csv'
p368
sI368
S'Trump Supporter Tweets/Sasha225Livia.csv'
p369
sI369
S'Trump Supporter Tweets/newcecelia.csv'
p370
sI370
S'Trump Supporter Tweets/tony_sanky.csv'
p371
sI371
S'Trump Supporter Tweets/4yourvets.csv'
p372
sI372
S'Trump Supporter Tweets/RichandGod.csv'
p373
sI373
S'Trump Supporter Tweets/naj05.csv'
p374
sI374
S'Trump Supporter Tweets/jaybakeraz.csv'
p375
sI375
S'Trump Supporter Tweets/Scapmichelle.csv'
p376
sI376
S'Trump Supporter Tweets/13BuzzC69.csv'
p377
sI377
S'Trump Supporter Tweets/SSGDJDaily.csv'
p378
sI378
S'Trump Supporter Tweets/CyndiRocks1.csv'
p379
sI379
S'Trump Supporter Tweets/KS46.csv'
p380
sI380
S'Trump Supporter Tweets/soniaerasmus.csv'
p381
sI381
S'Trump Supporter Tweets/Rally4Trump.csv'
p382
sI382
S'Trump Supporter Tweets/michlee310910.csv'
p383
sI383
S'Trump Supporter Tweets/Lordozz.csv'
p384
sI384
S'Trump Supporter Tweets/alicepa33372034.csv'
p385
sI385
S'Trump Supporter Tweets/GuruKnox.csv'
p386
sI386
S'Trump Supporter Tweets/Pjdahling.csv'
p387
sI387
S'Trump Supporter Tweets/sunnysk206.csv'
p388
sI388
S'Trump Supporter Tweets/Diamondmom50.csv'
p389
sI389
S'Trump Supporter Tweets/jezzie2003.csv'
p390
sI390
S'Trump Supporter Tweets/SemironicTwit.csv'
p391
sI391
S'Trump Supporter Tweets/CPpatriot.csv'
p392
sI392
S'Trump Supporter Tweets/katlute.csv'
p393
sI393
S'Trump Supporter Tweets/hrtablaze.csv'
p394
sI394
S'Trump Supporter Tweets/kcanderson30.csv'
p395
sI395
S'Trump Supporter Tweets/ELZUNIA79.csv'
p396
sI396
S'Trump Supporter Tweets/mike_mac112.csv'
p397
sI397
S'Trump Supporter Tweets/MeticulousPaul.csv'
p398
sI398
S'Trump Supporter Tweets/southrnone.csv'
p399
sI399
S'Trump Supporter Tweets/paperpusher2014.csv'
p400
sI400
S'Trump Supporter Tweets/LiberalsLose.csv'
p401
sI401
S'Trump Supporter Tweets/skipriley99.csv'
p402
sI402
S'Trump Supporter Tweets/WFoxCat.csv'
p403
sI403
S'Trump Supporter Tweets/G_Pond47.csv'
p404
sI404
S'Trump Supporter Tweets/nevagphx1.csv'
p405
sI405
S'Trump Supporter Tweets/Debiann10.csv'
p406
sI406
S'Trump Supporter Tweets/AcChenard.csv'
p407
sI407
S'Trump Supporter Tweets/sailfish2360.csv'
p408
sI408
S'Trump Supporter Tweets/lafferty_alan.csv'
p409
sI409
S'Trump Supporter Tweets/Tarmas55.csv'
p410
sI410
S'Trump Supporter Tweets/rWashingtonian.csv'
p411
sI411
S'Trump Supporter Tweets/defunked.csv'
p412
sI412
S'Trump Supporter Tweets/ACommonSenseWay.csv'
p413
sI413
S'Trump Supporter Tweets/Sea_Bucklin.csv'
p414
sI414
S'Trump Supporter Tweets/pinkcon.csv'
p415
sI415
S'Trump Supporter Tweets/america_trump.csv'
p416
sI416
S'Trump Supporter Tweets/Royalgeorgehk.csv'
p417
sI417
S'Trump Supporter Tweets/Defund_DC.csv'
p418
sI418
S'Trump Supporter Tweets/wandashelton94.csv'
p419
sI419
S'Trump Supporter Tweets/MissMiami.csv'
p420
sI420
S'Trump Supporter Tweets/htdpz.csv'
p421
sI421
S'Trump Supporter Tweets/suegreenberg.csv'
p422
sI422
S'Trump Supporter Tweets/nightmajic.csv'
p423
sI423
S'Trump Supporter Tweets/verndog77.csv'
p424
sI424
S'Trump Supporter Tweets/sbter79.csv'
p425
sI425
S'Trump Supporter Tweets/Gelicmonk.csv'
p426
sI426
S'Trump Supporter Tweets/seamus151.csv'
p427
sI427
S'Trump Supporter Tweets/tamkyn.csv'
p428
sI428
S'Trump Supporter Tweets/BobbyMickens.csv'
p429
sI429
S'Trump Supporter Tweets/TweeterNeeger.csv'
p430
sI430
S'Trump Supporter Tweets/theratzpack.csv'
p431
sI431
S'Trump Supporter Tweets/thorntoncrowe.csv'
p432
sI432
S'Trump Supporter Tweets/SassyandRonbo.csv'
p433
sI433
S'Trump Supporter Tweets/CJSensible.csv'
p434
sI434
S'Trump Supporter Tweets/unappologeticly.csv'
p435
sI435
S'Trump Supporter Tweets/polisciman75.csv'
p436
sI436
S'Trump Supporter Tweets/TheGeneratorGuy.csv'
p437
sI437
S'Trump Supporter Tweets/Marc_Smash.csv'
p438
sI438
S'Trump Supporter Tweets/scalpatriot.csv'
p439
sI439
S'Trump Supporter Tweets/GwenLCummings.csv'
p440
sI440
S'Trump Supporter Tweets/winkiechance.csv'
p441
sI441
S'Trump Supporter Tweets/pmicc33.csv'
p442
sI442
S'Trump Supporter Tweets/Tupstars.csv'
p443
sI443
S'Trump Supporter Tweets/Mrsmmtbeauty.csv'
p444
sI444
S'Trump Supporter Tweets/JamesDycus3.csv'
p445
sI445
S'Trump Supporter Tweets/magzSV.csv'
p446
sI446
S'Trump Supporter Tweets/qubrat1s.csv'
p447
sI447
S'Trump Supporter Tweets/jCar89000.csv'
p448
sI448
S'Trump Supporter Tweets/MikeandDawnNY.csv'
p449
sI449
S'Trump Supporter Tweets/PlsNoStumpTrump.csv'
p450
sI450
S'Trump Supporter Tweets/RickRfe.csv'
p451
sI451
S'Trump Supporter Tweets/Adee2002.csv'
p452
sI452
S'Trump Supporter Tweets/PAMomTrumpTrain.csv'
p453
sI453
S'Trump Supporter Tweets/jacksfreetime10.csv'
p454
sI454
S'Trump Supporter Tweets/machine8828.csv'
p455
sI455
S'Trump Supporter Tweets/DominicMollica.csv'
p456
sI456
S'Trump Supporter Tweets/LindaSudduth2.csv'
p457
sI457
S'Trump Supporter Tweets/annie_amountain.csv'
p458
sI458
S'Trump Supporter Tweets/Dcdied320.csv'
p459
sI459
S'Trump Supporter Tweets/CelinaSivret.csv'
p460
sI460
S'Trump Supporter Tweets/koihosting.csv'
p461
sI461
S'Trump Supporter Tweets/ox_News.csv'
p462
sI462
S'Trump Supporter Tweets/stormestone.csv'
p463
sI463
S'Trump Supporter Tweets/USA_FREEDOM_NOW.csv'
p464
sI464
S'Trump Supporter Tweets/RebelTom123.csv'
p465
sI465
S'Trump Supporter Tweets/wendyfarrier1.csv'
p466
sI466
S'Trump Supporter Tweets/DarioWiter1.csv'
p467
sI467
S'Trump Supporter Tweets/amperg33.csv'
p468
sI468
S'Trump Supporter Tweets/Jnetab.csv'
p469
sI469
S'Trump Supporter Tweets/BrianStauff.csv'
p470
sI470
S'Trump Supporter Tweets/Stargzr214.csv'
p471
sI471
S'Trump Supporter Tweets/jesskazen.csv'
p472
sI472
S'Trump Supporter Tweets/MargaretCrowth1.csv'
p473
sI473
S'Trump Supporter Tweets/TrumpinIndiana.csv'
p474
sI474
S'Trump Supporter Tweets/jamesayo610.csv'
p475
sI475
S'Trump Supporter Tweets/SteveGrock004.csv'
p476
sI476
S'Clinton Supporter Tweets/mailbear.csv'
p477
sI477
S'Clinton Supporter Tweets/dancoolin.csv'
p478
sI478
S'Clinton Supporter Tweets/sxmp.csv'
p479
sI479
S'Clinton Supporter Tweets/JuniKiwi.csv'
p480
sI480
S'Clinton Supporter Tweets/schulman_rachel.csv'
p481
sI481
S'Clinton Supporter Tweets/dlian3.csv'
p482
sI482
S'Clinton Supporter Tweets/kmoor1979.csv'
p483
sI483
S'Clinton Supporter Tweets/jmzinct.csv'
p484
sI484
S'Clinton Supporter Tweets/BernGibbons.csv'
p485
sI485
S'Clinton Supporter Tweets/Nekhabet85Mata.csv'
p486
sI486
S'Clinton Supporter Tweets/baagaarr_aarr.csv'
p487
sI487
S'Clinton Supporter Tweets/muwanguzi_nuru.csv'
p488
sI488
S'Clinton Supporter Tweets/Rsmithjr1.csv'
p489
sI489
S'Clinton Supporter Tweets/cblitzer.csv'
p490
sI490
S'Clinton Supporter Tweets/luzmario37.csv'
p491
sI491
S'Clinton Supporter Tweets/fayedan2.csv'
p492
sI492
S'Clinton Supporter Tweets/Seabaroness.csv'
p493
sI493
S'Clinton Supporter Tweets/Mac_Karekar.csv'
p494
sI494
S'Clinton Supporter Tweets/chesterpdiusa.csv'
p495
sI495
S'Clinton Supporter Tweets/Stellaochoa20.csv'
p496
sI496
S'Clinton Supporter Tweets/NoSurrenderCIR.csv'
p497
sI497
S'Clinton Supporter Tweets/Love11Lea.csv'
p498
sI498
S'Clinton Supporter Tweets/Parisha_Jackson.csv'
p499
sI499
S'Clinton Supporter Tweets/Hillary45USA.csv'
p500
sI500
S'Clinton Supporter Tweets/DoyleTay.csv'
p501
sI501
S'Clinton Supporter Tweets/NoHolidayforGOP.csv'
p502
sI502
S'Clinton Supporter Tweets/stormjohnson_.csv'
p503
sI503
S'Clinton Supporter Tweets/ChipgangMeech.csv'
p504
sI504
S'Clinton Supporter Tweets/RegsLeader.csv'
p505
sI505
S'Clinton Supporter Tweets/FionnaYvette.csv'
p506
sI506
S'Clinton Supporter Tweets/KhamisiPeter.csv'
p507
sI507
S'Clinton Supporter Tweets/DrGMac.csv'
p508
sI508
S'Clinton Supporter Tweets/aleybassi.csv'
p509
sI509
S'Clinton Supporter Tweets/MollyJean25.csv'
p510
sI510
S'Clinton Supporter Tweets/Dennis_Macaulay.csv'
p511
sI511
S'Clinton Supporter Tweets/khan96faiz.csv'
p512
sI512
S'Clinton Supporter Tweets/gabe2476.csv'
p513
sI513
S'Clinton Supporter Tweets/ManMet80.csv'
p514
sI514
S'Clinton Supporter Tweets/fredydas.csv'
p515
sI515
S'Clinton Supporter Tweets/sanjida_iqbal.csv'
p516
sI516
S'Clinton Supporter Tweets/tutto_vegas.csv'
p517
sI517
S'Clinton Supporter Tweets/pmargub.csv'
p518
sI518
S'Clinton Supporter Tweets/lisa_w227.csv'
p519
sI519
S'Clinton Supporter Tweets/NelleanaMc.csv'
p520
sI520
S'Clinton Supporter Tweets/Pink_Gladiator.csv'
p521
sI521
S'Clinton Supporter Tweets/StylinStartHere.csv'
p522
sI522
S'Clinton Supporter Tweets/ErinMarieUSA.csv'
p523
sI523
S'Clinton Supporter Tweets/redwoodk8.csv'
p524
sI524
S'Clinton Supporter Tweets/brhammer07.csv'
p525
sI525
S'Clinton Supporter Tweets/aefadul22.csv'
p526
sI526
S'Clinton Supporter Tweets/tilli66.csv'
p527
sI527
S'Clinton Supporter Tweets/SunVisor123.csv'
p528
sI528
S'Clinton Supporter Tweets/geronimo_diaz.csv'
p529
sI529
S'Clinton Supporter Tweets/chevintrul.csv'
p530
sI530
S'Clinton Supporter Tweets/KiranSuniya.csv'
p531
sI531
S'Clinton Supporter Tweets/NwaiwuClinton.csv'
p532
sI532
S'Clinton Supporter Tweets/dman1949.csv'
p533
sI533
S'Clinton Supporter Tweets/SplinterSam100.csv'
p534
sI534
S'Clinton Supporter Tweets/lconaway53.csv'
p535
sI535
S'Clinton Supporter Tweets/sharlhorton.csv'
p536
sI536
S'Clinton Supporter Tweets/0ff_thA_Chain.csv'
p537
sI537
S'Clinton Supporter Tweets/quirkyme.csv'
p538
sI538
S'Clinton Supporter Tweets/Elenanang764.csv'
p539
sI539
S'Clinton Supporter Tweets/KnikaSalcedo.csv'
p540
sI540
S'Clinton Supporter Tweets/alex2odessa.csv'
p541
sI541
S'Clinton Supporter Tweets/bevcosham.csv'
p542
sI542
S'Clinton Supporter Tweets/WelbornAlice.csv'
p543
sI543
S'Clinton Supporter Tweets/bullittvet.csv'
p544
sI544
S'Clinton Supporter Tweets/indy_sports2016.csv'
p545
sI545
S'Clinton Supporter Tweets/grantoriley12.csv'
p546
sI546
S'Clinton Supporter Tweets/pawsonbalsam.csv'
p547
sI547
S'Clinton Supporter Tweets/giddeslife.csv'
p548
sI548
S'Clinton Supporter Tweets/DanielaTejada27.csv'
p549
sI549
S'Clinton Supporter Tweets/fdimic.csv'
p550
sI550
S'Clinton Supporter Tweets/ElMonte08.csv'
p551
sI551
S'Clinton Supporter Tweets/AnnieBaby72489.csv'
p552
sI552
S'Clinton Supporter Tweets/MontesMontes170.csv'
p553
sI553
S'Clinton Supporter Tweets/galonazo69.csv'
p554
sI554
S'Clinton Supporter Tweets/454522220.csv'
p555
sI555
S'Clinton Supporter Tweets/JOSEG7BAIZA.csv'
p556
sI556
S'Clinton Supporter Tweets/bnr32vsp.csv'
p557
sI557
S'Clinton Supporter Tweets/yogawts.csv'
p558
sI558
S'Clinton Supporter Tweets/dajer_parradokp.csv'
p559
sI559
S'Clinton Supporter Tweets/ToniBanderas2.csv'
p560
sI560
S'Clinton Supporter Tweets/Robthepromoter.csv'
p561
sI561
S'Clinton Supporter Tweets/kielboat.csv'
p562
sI562
S'Clinton Supporter Tweets/Maninthetower78.csv'
p563
sI563
S'Clinton Supporter Tweets/982904Pradeep.csv'
p564
sI564
S'Clinton Supporter Tweets/investor_chick.csv'
p565
sI565
S'Clinton Supporter Tweets/snowbird42.csv'
p566
sI566
S'Clinton Supporter Tweets/johnypanama.csv'
p567
sI567
S'Clinton Supporter Tweets/nmouhtadi.csv'
p568
sI568
S'Clinton Supporter Tweets/jo_jocartwright.csv'
p569
sI569
S'Clinton Supporter Tweets/forrestkuz1.csv'
p570
sI570
S'Clinton Supporter Tweets/WeintraubDonald.csv'
p571
sI571
S'Clinton Supporter Tweets/jocasio43.csv'
p572
sI572
S'Clinton Supporter Tweets/MillerCrawford1.csv'
p573
sI573
S'Clinton Supporter Tweets/MichaelMick777.csv'
p574
sI574
S'Clinton Supporter Tweets/v_nightryderb.csv'
p575
sI575
S'Clinton Supporter Tweets/taichiwarrior78.csv'
p576
sI576
S'Clinton Supporter Tweets/777sjr.csv'
p577
sI577
S'Clinton Supporter Tweets/VIBESTEE.csv'
p578
sI578
S'Clinton Supporter Tweets/TrishFoster1.csv'
p579
sI579
S'Clinton Supporter Tweets/WeiChenGoldman.csv'
p580
sI580
S'Clinton Supporter Tweets/Catslawrence.csv'
p581
sI581
S'Clinton Supporter Tweets/HectorC3532598.csv'
p582
sI582
S'Clinton Supporter Tweets/MaryL1964.csv'
p583
sI583
S'Clinton Supporter Tweets/IsabellAngestav.csv'
p584
sI584
S'Clinton Supporter Tweets/eyis_emma.csv'
p585
sI585
S'Clinton Supporter Tweets/Kristina_Why.csv'
p586
sI586
S'Clinton Supporter Tweets/curvedcrayfish.csv'
p587
sI587
S'Clinton Supporter Tweets/PegasusRalph.csv'
p588
sI588
S'Clinton Supporter Tweets/ZubairK97556107.csv'
p589
sI589
S'Clinton Supporter Tweets/gloann23.csv'
p590
sI590
S'Clinton Supporter Tweets/adnandk85.csv'
p591
sI591
S'Clinton Supporter Tweets/mlleelizabeth.csv'
p592
sI592
S'Clinton Supporter Tweets/Kortana360.csv'
p593
sI593
S'Clinton Supporter Tweets/JanineDeleon93.csv'
p594
sI594
S'Clinton Supporter Tweets/spalla1292.csv'
p595
sI595
S'Clinton Supporter Tweets/fjtrauth1222.csv'
p596
sI596
S'Clinton Supporter Tweets/DonnelleHall.csv'
p597
sI597
S'Clinton Supporter Tweets/Milva_geli.csv'
p598
sI598
S'Clinton Supporter Tweets/menjicm.csv'
p599
sI599
S'Clinton Supporter Tweets/esquiveLulu.csv'
p600
sI600
S'Clinton Supporter Tweets/manib1974.csv'
p601
sI601
S'Clinton Supporter Tweets/MariaJaramilloD.csv'
p602
sI602
S'Clinton Supporter Tweets/SRottenberg.csv'
p603
sI603
S'Clinton Supporter Tweets/Caddyweese.csv'
p604
sI604
S'Clinton Supporter Tweets/robles0324.csv'
p605
sI605
S'Clinton Supporter Tweets/jimenezjasa.csv'
p606
sI606
S'Clinton Supporter Tweets/dlo1629.csv'
p607
sI607
S'Clinton Supporter Tweets/joe_dirty.csv'
p608
sI608
S'Clinton Supporter Tweets/BigAngryLizard.csv'
p609
sI609
S'Clinton Supporter Tweets/PSejdia.csv'
p610
sI610
S'Clinton Supporter Tweets/kkqadar.csv'
p611
sI611
S'Clinton Supporter Tweets/urscillat.csv'
p612
sI612
S'Clinton Supporter Tweets/AnnetteMcElhin2.csv'
p613
sI613
S'Clinton Supporter Tweets/lyon849.csv'
p614
sI614
S'Clinton Supporter Tweets/minionversus.csv'
p615
sI615
S'Clinton Supporter Tweets/83Fawad.csv'
p616
sI616
S'Clinton Supporter Tweets/nan5zac.csv'
p617
sI617
S'Clinton Supporter Tweets/paintbranch1398.csv'
p618
sI618
S'Clinton Supporter Tweets/Urbanblaze_.csv'
p619
sI619
S'Clinton Supporter Tweets/Birdie56664647.csv'
p620
sI620
S'Clinton Supporter Tweets/jessina88.csv'
p621
sI621
S'Clinton Supporter Tweets/harleyshawty55.csv'
p622
sI622
S'Clinton Supporter Tweets/archie1badger.csv'
p623
sI623
S'Clinton Supporter Tweets/REPhila.csv'
p624
sI624
S'Clinton Supporter Tweets/WaiWai2muc.csv'
p625
sI625
S'Clinton Supporter Tweets/vsayago.csv'
p626
sI626
S'Clinton Supporter Tweets/SophieDandelion.csv'
p627
sI627
S'Clinton Supporter Tweets/LamarJordan101.csv'
p628
sI628
S'Clinton Supporter Tweets/seidness.csv'
p629
sI629
S'Clinton Supporter Tweets/RavazzaniGuido.csv'
p630
sI630
S'Clinton Supporter Tweets/TatarFanForever.csv'
p631
sI631
S'Clinton Supporter Tweets/res0xhdb2.csv'
p632
sI632
S'Clinton Supporter Tweets/skorpyos.csv'
p633
sI633
S'Clinton Supporter Tweets/windsunking.csv'
p634
sI634
S'Clinton Supporter Tweets/algl94gizem.csv'
p635
sI635
S'Clinton Supporter Tweets/nathangarcia38.csv'
p636
sI636
S'Clinton Supporter Tweets/mariacramirez11.csv'
p637
sI637
S'Clinton Supporter Tweets/DarrinParodi.csv'
p638
sI638
S'Clinton Supporter Tweets/JacquiCoby.csv'
p639
sI639
S'Clinton Supporter Tweets/onyekaeziamaka.csv'
p640
sI640
S'Clinton Supporter Tweets/readernoir.csv'
p641
sI641
S'Clinton Supporter Tweets/gabbyaweston.csv'
p642
sI642
S'Clinton Supporter Tweets/kickboxerva.csv'
p643
sI643
S'Clinton Supporter Tweets/waynegracie2.csv'
p644
sI644
S'Clinton Supporter Tweets/0520d6e294cc436.csv'
p645
sI645
S'Clinton Supporter Tweets/jbzmbrandon.csv'
p646
sI646
S'Clinton Supporter Tweets/spannerbrane.csv'
p647
sI647
S'Clinton Supporter Tweets/FosterLolo.csv'
p648
sI648
S'Clinton Supporter Tweets/mfarhadi.csv'
p649
sI649
S'Clinton Supporter Tweets/DottRiccardi.csv'
p650
sI650
S'Clinton Supporter Tweets/greatbandsrhere.csv'
p651
sI651
S'Clinton Supporter Tweets/guerrero_tnt.csv'
p652
sI652
S'Clinton Supporter Tweets/onunez05.csv'
p653
sI653
S'Clinton Supporter Tweets/HannahBananaHEM.csv'
p654
sI654
S'Clinton Supporter Tweets/JoXavMartinez.csv'
p655
sI655
S'Clinton Supporter Tweets/SaratPatnaikV1.csv'
p656
sI656
S'Clinton Supporter Tweets/tremendoortega.csv'
p657
sI657
S'Clinton Supporter Tweets/missbee93.csv'
p658
sI658
S'Clinton Supporter Tweets/cumming_jr.csv'
p659
sI659
S'Clinton Supporter Tweets/jansmliss.csv'
p660
sI660
S'Clinton Supporter Tweets/ursomp.csv'
p661
sI661
S'Clinton Supporter Tweets/tamaliisen.csv'
p662
sI662
S'Clinton Supporter Tweets/momlovesfaith.csv'
p663
sI663
S'Clinton Supporter Tweets/sailmom.csv'
p664
sI664
S'Clinton Supporter Tweets/lguard79.csv'
p665
sI665
S'Clinton Supporter Tweets/acmcicmom.csv'
p666
sI666
S'Clinton Supporter Tweets/GP_Hector1.csv'
p667
sI667
S'Clinton Supporter Tweets/theicon26.csv'
p668
sI668
S'Clinton Supporter Tweets/Inakat1.csv'
p669
sI669
S'Clinton Supporter Tweets/SimmonsTwyne305.csv'
p670
sI670
S'Clinton Supporter Tweets/rjbarbee2009.csv'
p671
sI671
S'Clinton Supporter Tweets/Maggyw519.csv'
p672
sI672
S'Clinton Supporter Tweets/_DragonBallZeke.csv'
p673
sI673
S'Clinton Supporter Tweets/netobetancourt.csv'
p674
sI674
S'Clinton Supporter Tweets/Lguard78.csv'
p675
sI675
S'Clinton Supporter Tweets/Harjits510.csv'
p676
sI676
S'Clinton Supporter Tweets/ChangminsWife05.csv'
p677
sI677
S'Clinton Supporter Tweets/MasoodMastoi1.csv'
p678
sI678
S'Clinton Supporter Tweets/Marcella345.csv'
p679
sI679
S'Clinton Supporter Tweets/marydrum7.csv'
p680
sI680
S'Clinton Supporter Tweets/Mineozelci.csv'
p681
sI681
S'Clinton Supporter Tweets/nee_mohanty.csv'
p682
sI682
S'Clinton Supporter Tweets/Catmayfair.csv'
p683
sI683
S'Clinton Supporter Tweets/retiredfirstsgt.csv'
p684
sI684
S'Clinton Supporter Tweets/sumanamindcare1.csv'
p685
sI685
S'Clinton Supporter Tweets/optimalgal.csv'
p686
sI686
S'Clinton Supporter Tweets/mrrafa68.csv'
p687
sI687
S'Clinton Supporter Tweets/juarez_wil.csv'
p688
sI688
S'Clinton Supporter Tweets/piton201017.csv'
p689
sI689
S'Clinton Supporter Tweets/triciawalker55.csv'
p690
sI690
S'Clinton Supporter Tweets/Nia0511.csv'
p691
sI691
S'Clinton Supporter Tweets/Usuariomg.csv'
p692
sI692
S'Clinton Supporter Tweets/bphillips1225.csv'
p693
sI693
S'Clinton Supporter Tweets/steelrsfan57.csv'
p694
sI694
S'Clinton Supporter Tweets/skhdafi.csv'
p695
sI695
S'Clinton Supporter Tweets/lldocter.csv'
p696
sI696
S'Clinton Supporter Tweets/ItsCarlosSoto.csv'
p697
sI697
S'Clinton Supporter Tweets/YeaNarry.csv'
p698
sI698
S'Clinton Supporter Tweets/Willwillwiill1.csv'
p699
sI699
S'Clinton Supporter Tweets/djnl07.csv'
p700
sI700
S'Clinton Supporter Tweets/BrindaStar.csv'
p701
sI701
S'Clinton Supporter Tweets/Durdur777.csv'
p702
sI702
S'Clinton Supporter Tweets/caluvr4life.csv'
p703
sI703
S'Clinton Supporter Tweets/HalliburtonLan.csv'
p704
sI704
S'Clinton Supporter Tweets/claudiagh2012.csv'
p705
sI705
S'Clinton Supporter Tweets/omahareggaevibe.csv'
p706
sI706
S'Clinton Supporter Tweets/ellen0751.csv'
p707
sI707
S'Clinton Supporter Tweets/Fourtune6.csv'
p708
sI708
S'Clinton Supporter Tweets/vergiemayes1.csv'
p709
sI709
S'Clinton Supporter Tweets/swmpwtch.csv'
p710
sI710
S'Clinton Supporter Tweets/mamiyita01.csv'
p711
sI711
S'Clinton Supporter Tweets/TWITEE00100.csv'
p712
sI712
S'Clinton Supporter Tweets/JLofton2016.csv'
p713
sI713
S'Clinton Supporter Tweets/DeanClarkus.csv'
p714
sI714
S'Clinton Supporter Tweets/NO_APOlogiez.csv'
p715
sI715
S'Clinton Supporter Tweets/Crj2L.csv'
p716
sI716
S'Clinton Supporter Tweets/Auxi13Sheila.csv'
p717
sI717
S'Clinton Supporter Tweets/mgiberst.csv'
p718
sI718
S'Clinton Supporter Tweets/Jocarhortsr.csv'
p719
sI719
S'Clinton Supporter Tweets/TrishBarasa.csv'
p720
sI720
S'Clinton Supporter Tweets/mrluna69.csv'
p721
sI721
S'Clinton Supporter Tweets/Boston99G.csv'
p722
sI722
S'Clinton Supporter Tweets/Ani_0112.csv'
p723
sI723
S'Clinton Supporter Tweets/AbdulJa19276902.csv'
p724
sI724
S'Clinton Supporter Tweets/AlliLizM.csv'
p725
sI725
S'Clinton Supporter Tweets/monabomgaars.csv'
p726
sI726
S'Clinton Supporter Tweets/SaharaSalinas.csv'
p727
sI727
S'Clinton Supporter Tweets/RGereigekidsdoc.csv'
p728
sI728
S'Clinton Supporter Tweets/tylerporshe.csv'
p729
sI729
S'Clinton Supporter Tweets/ChrisEtheridge2.csv'
p730
sI730
S'Clinton Supporter Tweets/prottoy_2015.csv'
p731
sI731
S'Clinton Supporter Tweets/meohb1.csv'
p732
sI732
S'Clinton Supporter Tweets/RobertP26132782.csv'
p733
sI733
S'Clinton Supporter Tweets/281955vic.csv'
p734
sI734
S'Clinton Supporter Tweets/rclsgmz.csv'
p735
sI735
S'Clinton Supporter Tweets/templario51.csv'
p736
sI736
S'Clinton Supporter Tweets/55andwhat.csv'
p737
sI737
S'Clinton Supporter Tweets/colmonelridge.csv'
p738
sI738
S'Clinton Supporter Tweets/JakolAlter.csv'
p739
sI739
S'Clinton Supporter Tweets/CamilleCobb19.csv'
p740
sI740
S'Clinton Supporter Tweets/Grant_Writer.csv'
p741
sI741
S'Clinton Supporter Tweets/jaeyoon1009.csv'
p742
sI742
S'Clinton Supporter Tweets/MrsHaleySargent.csv'
p743
sI743
S'Clinton Supporter Tweets/capnkirk1701.csv'
p744
sI744
S'Clinton Supporter Tweets/bodeclitton.csv'
p745
sI745
S'Clinton Supporter Tweets/Samoanberd.csv'
p746
sI746
S'Clinton Supporter Tweets/damotabt.csv'
p747
sI747
S'Clinton Supporter Tweets/valleymotion.csv'
p748
sI748
S'Clinton Supporter Tweets/_mikeedwards__.csv'
p749
sI749
S'Clinton Supporter Tweets/AnOldLefty.csv'
p750
sI750
S'Clinton Supporter Tweets/SmartyKatNap.csv'
p751
sI751
S'Clinton Supporter Tweets/ujhsteacher.csv'
p752
sI752
S'Clinton Supporter Tweets/IChauhanAmerica.csv'
p753
sI753
S'Clinton Supporter Tweets/Lyn_Samuels.csv'
p754
sI754
S'Clinton Supporter Tweets/GolddanJ.csv'
p755
sI755
S'Clinton Supporter Tweets/canzod.csv'
p756
sI756
S'Clinton Supporter Tweets/EleniStyles6.csv'
p757
sI757
S'Clinton Supporter Tweets/lord_clod.csv'
p758
sI758
S'Clinton Supporter Tweets/Mikkymingo.csv'
p759
sI759
S'Clinton Supporter Tweets/CindyDPishere.csv'
p760
sI760
S'Clinton Supporter Tweets/mydoggigi.csv'
p761
sI761
S'Clinton Supporter Tweets/reinventingcole.csv'
p762
sI762
S'Clinton Supporter Tweets/darrowsworld.csv'
p763
sI763
S'Clinton Supporter Tweets/LANIJO58.csv'
p764
sI764
S'Clinton Supporter Tweets/Nagababu0.csv'
p765
sI765
S'Clinton Supporter Tweets/LaFaiths76.csv'
p766
sI766
S'Clinton Supporter Tweets/emadrigal_.csv'
p767
sI767
S'Clinton Supporter Tweets/Visionari0o.csv'
p768
sI768
S'Clinton Supporter Tweets/yismaryabril.csv'
p769
sI769
S'Clinton Supporter Tweets/n200373.csv'
p770
sI770
S'Clinton Supporter Tweets/SaraCortelloni.csv'
p771
sI771
S'Clinton Supporter Tweets/__xoxokristy.csv'
p772
sI772
S'Clinton Supporter Tweets/KryCamacho.csv'
p773
sI773
S'Clinton Supporter Tweets/AmyEthen.csv'
p774
sI774
S'Clinton Supporter Tweets/CTeizen.csv'
p775
sI775
S'Clinton Supporter Tweets/CaycePatricia.csv'
p776
sI776
S'Clinton Supporter Tweets/croibrazil.csv'
p777
sI777
S'Clinton Supporter Tweets/bren1477.csv'
p778
sI778
S'Clinton Supporter Tweets/nascarmadame.csv'
p779
sI779
S'Clinton Supporter Tweets/segid2003.csv'
p780
sI780
S'Clinton Supporter Tweets/aliciafloresc21.csv'
p781
sI781
S'Clinton Supporter Tweets/diegojjvasquez.csv'
p782
sI782
S'Clinton Supporter Tweets/Lguard80.csv'
p783
sI783
S'Clinton Supporter Tweets/tflex_vchannel.csv'
p784
sI784
S'Clinton Supporter Tweets/Captin61.csv'
p785
sI785
S'Clinton Supporter Tweets/luokee.csv'
p786
sI786
S'Clinton Supporter Tweets/bogood93.csv'
p787
sI787
S'Clinton Supporter Tweets/FabioPinazzo.csv'
p788
sI788
S'Clinton Supporter Tweets/Steviedust.csv'
p789
sI789
S'Clinton Supporter Tweets/yomi_chizoba.csv'
p790
sI790
S'Clinton Supporter Tweets/Amycrocker76Amy.csv'
p791
sI791
S'Clinton Supporter Tweets/Jillepepper.csv'
p792
sI792
S'Clinton Supporter Tweets/movieguy13.csv'
p793
sI793
S'Clinton Supporter Tweets/laurelspot1.csv'
p794
sI794
S'Clinton Supporter Tweets/wunaieva.csv'
p795
sI795
S'Clinton Supporter Tweets/natxod20061985.csv'
p796
sI796
S'Clinton Supporter Tweets/Futuredemgov.csv'
p797
sI797
S'Clinton Supporter Tweets/Asder1958.csv'
p798
sI798
S'Clinton Supporter Tweets/ReneeDwarkadas.csv'
p799
sI799
S'Clinton Supporter Tweets/CoreyPysher.csv'
p800
sI800
S'Clinton Supporter Tweets/Lindzzii.csv'
p801
sI801
S'Clinton Supporter Tweets/Alhudir.csv'
p802
sI802
S'Clinton Supporter Tweets/conor444c.csv'
p803
sI803
S'Clinton Supporter Tweets/_JustinBL.csv'
p804
sI804
S'Clinton Supporter Tweets/879_90_JF.csv'
p805
sI805
S'Clinton Supporter Tweets/HMehmetdefne35.csv'
p806
sI806
S'Clinton Supporter Tweets/JacksonCaddel.csv'
p807
sI807
S'Clinton Supporter Tweets/fpistorio.csv'
p808
sI808
S'Clinton Supporter Tweets/CarolGo18658081.csv'
p809
sI809
S'Clinton Supporter Tweets/LisaMacNewton.csv'
p810
sI810
S'Clinton Supporter Tweets/drv4posgrowth.csv'
p811
sI811
S'Clinton Supporter Tweets/joc2bmft.csv'
p812
sI812
S'Cruz Supporter Tweets/backyardconserv.csv'
p813
sI813
S'Cruz Supporter Tweets/FuriousFarmBoy.csv'
p814
sI814
S'Cruz Supporter Tweets/Ginger4Freedom.csv'
p815
sI815
S'Cruz Supporter Tweets/mikhailalterman.csv'
p816
sI816
S'Cruz Supporter Tweets/javick82.csv'
p817
sI817
S'Cruz Supporter Tweets/TheFullmetalrpg.csv'
p818
sI818
S'Cruz Supporter Tweets/driller1949.csv'
p819
sI819
S'Cruz Supporter Tweets/kzelaya83.csv'
p820
sI820
S'Cruz Supporter Tweets/Right_Pilot.csv'
p821
sI821
S'Cruz Supporter Tweets/StevenBaldwin13.csv'
p822
sI822
S'Cruz Supporter Tweets/skatblueeyes.csv'
p823
sI823
S'Cruz Supporter Tweets/KIR_bigg50.csv'
p824
sI824
S'Cruz Supporter Tweets/ElizabethETK.csv'
p825
sI825
S'Cruz Supporter Tweets/LynnieCA.csv'
p826
sI826
S'Cruz Supporter Tweets/Eccentrie.csv'
p827
sI827
S'Cruz Supporter Tweets/DrLynetteStalls.csv'
p828
sI828
S'Cruz Supporter Tweets/MontanaEconomy.csv'
p829
sI829
S'Cruz Supporter Tweets/ptd619.csv'
p830
sI830
S'Cruz Supporter Tweets/ktdicken.csv'
p831
sI831
S'Cruz Supporter Tweets/PatriotLaura.csv'
p832
sI832
S'Cruz Supporter Tweets/jinxkaiser.csv'
p833
sI833
S'Cruz Supporter Tweets/MCessac.csv'
p834
sI834
S'Cruz Supporter Tweets/WoffordN.csv'
p835
sI835
S'Cruz Supporter Tweets/MichelleDdennis.csv'
p836
sI836
S'Cruz Supporter Tweets/ChrisWil788236.csv'
p837
sI837
S'Cruz Supporter Tweets/rosalindakilmer.csv'
p838
sI838
S'Cruz Supporter Tweets/artnthesoul.csv'
p839
sI839
S'Cruz Supporter Tweets/LeighAnnBellew.csv'
p840
sI840
S'Cruz Supporter Tweets/Travis_Byrd.csv'
p841
sI841
S'Cruz Supporter Tweets/DunningRandall.csv'
p842
sI842
S'Cruz Supporter Tweets/opinionat_ed.csv'
p843
sI843
S'Cruz Supporter Tweets/stargazergal62.csv'
p844
sI844
S'Cruz Supporter Tweets/JasonDean227.csv'
p845
sI845
S'Cruz Supporter Tweets/jenelzeer.csv'
p846
sI846
S'Cruz Supporter Tweets/DaytonaKen333.csv'
p847
sI847
S'Cruz Supporter Tweets/Lizbethjoy.csv'
p848
sI848
S'Cruz Supporter Tweets/Jst1tC.csv'
p849
sI849
S'Cruz Supporter Tweets/Tab1791.csv'
p850
sI850
S'Cruz Supporter Tweets/rogerthatone.csv'
p851
sI851
S'Cruz Supporter Tweets/BridgetESF.csv'
p852
sI852
S'Cruz Supporter Tweets/sprice44.csv'
p853
sI853
S'Cruz Supporter Tweets/mdevel.csv'
p854
sI854
S'Cruz Supporter Tweets/fairbanks666.csv'
p855
sI855
S'Cruz Supporter Tweets/LadyConservativ.csv'
p856
sI856
S'Cruz Supporter Tweets/DJGreenwald.csv'
p857
sI857
S'Cruz Supporter Tweets/lynn_lwrightpcd.csv'
p858
sI858
S'Cruz Supporter Tweets/Dboyz22.csv'
p859
sI859
S'Cruz Supporter Tweets/MellowCat22.csv'
p860
sI860
S'Cruz Supporter Tweets/Raynsteps89.csv'
p861
sI861
S'Cruz Supporter Tweets/JimDWay.csv'
p862
sI862
S'Cruz Supporter Tweets/MargeRagano.csv'
p863
sI863
S'Cruz Supporter Tweets/JackParMa.csv'
p864
sI864
S'Cruz Supporter Tweets/Momservative.csv'
p865
sI865
S'Sanders Supporter Tweets/ideallyno.csv'
p866
sI866
S'Sanders Supporter Tweets/JENocide13.csv'
p867
sI867
S'Sanders Supporter Tweets/CinderScoria.csv'
p868
sI868
S'Sanders Supporter Tweets/cmerikson.csv'
p869
sI869
S'Sanders Supporter Tweets/KatieKCaruthers.csv'
p870
sI870
S'Sanders Supporter Tweets/buckwilde.csv'
p871
sI871
S'Sanders Supporter Tweets/ameezysguitar.csv'
p872
sI872
S'Sanders Supporter Tweets/AudreyGoz.csv'
p873
sI873
S'Sanders Supporter Tweets/KaylaSteltz.csv'
p874
sI874
S'Sanders Supporter Tweets/vaasuS.csv'
p875
sI875
S'Sanders Supporter Tweets/mkchantelois.csv'
p876
sI876
S'Sanders Supporter Tweets/sfu138.csv'
p877
sI877
S'Sanders Supporter Tweets/GlenHarvey6.csv'
p878
sI878
S'Sanders Supporter Tweets/BronxIsBerning.csv'
p879
sI879
S'Sanders Supporter Tweets/JordyGoBoom.csv'
p880
sI880
S'Sanders Supporter Tweets/itmightberyan.csv'
p881
sI881
S'Sanders Supporter Tweets/transboy_lou.csv'
p882
sI882
S'Sanders Supporter Tweets/Thinkers4Bernie.csv'
p883
sI883
S'Sanders Supporter Tweets/JellyToster.csv'
p884
sI884
S'Sanders Supporter Tweets/Sig244.csv'
p885
sI885
S'Sanders Supporter Tweets/redrumwashere.csv'
p886
sI886
S'Sanders Supporter Tweets/Commander998381.csv'
p887
sI887
S'Sanders Supporter Tweets/EmmaSegasture.csv'
p888
sI888
S'Sanders Supporter Tweets/BabyCramer3.csv'
p889
sI889
S'Sanders Supporter Tweets/ryanwilsn.csv'
p890
sI890
S'Sanders Supporter Tweets/Yvette1082.csv'
p891
sI891
S'Sanders Supporter Tweets/Jasmine_Dhillon.csv'
p892
sI892
S'Sanders Supporter Tweets/Aesilius.csv'
p893
sI893
S'Sanders Supporter Tweets/_MichelleIsMe_.csv'
p894
sI894
S'Sanders Supporter Tweets/Sh1r1n.csv'
p895
sI895
S'Sanders Supporter Tweets/MinervaAventine.csv'
p896
sI896
S'Sanders Supporter Tweets/regancarey.csv'
p897
sI897
S'Sanders Supporter Tweets/JojoPapa32.csv'
p898
sI898
S'Sanders Supporter Tweets/nsvarner.csv'
p899
sI899
S'Sanders Supporter Tweets/kelcbobelc.csv'
p900
sI900
S'Sanders Supporter Tweets/DevolutionMan.csv'
p901
sI901
S'Sanders Supporter Tweets/french_monica.csv'
p902
sI902
S'Sanders Supporter Tweets/thrustaash.csv'
p903
sI903
S'Sanders Supporter Tweets/DonaldHall1114.csv'
p904
sI904
S'Sanders Supporter Tweets/MediaPhiled.csv'
p905
sI905
S'Sanders Supporter Tweets/ValiumSky.csv'
p906
sI906
S'Sanders Supporter Tweets/joavargas_1220.csv'
p907
sI907
S'Sanders Supporter Tweets/msanthropic.csv'
p908
sI908
S'Sanders Supporter Tweets/VivaLaMarlo.csv'
p909
sI909
S'Sanders Supporter Tweets/jwithers102.csv'
p910
sI910
S'Sanders Supporter Tweets/LukaJones21.csv'
p911
sI911
S'Sanders Supporter Tweets/willdizz.csv'
p912
sI912
S'Sanders Supporter Tweets/LilyStarlette.csv'
p913
sI913
S'Sanders Supporter Tweets/morgipuppy.csv'
p914
sI914
S'Sanders Supporter Tweets/ilakster.csv'
p915
sI915
S'Sanders Supporter Tweets/sheboppp.csv'
p916
sI916
S'Sanders Supporter Tweets/Beigemoth.csv'
p917
sI917
S'Sanders Supporter Tweets/Necomilillo.csv'
p918
sI918
S'Sanders Supporter Tweets/madiriotgirl.csv'
p919
sI919
S'Sanders Supporter Tweets/Nw4life87.csv'
p920
sI920
S'Sanders Supporter Tweets/aehaibi.csv'
p921
sI921
S'Sanders Supporter Tweets/smolls420.csv'
p922
sI922
S'Sanders Supporter Tweets/bcain09.csv'
p923
sI923
S'Sanders Supporter Tweets/dianakroodsma.csv'
p924
sI924
S'Sanders Supporter Tweets/sorinaraduPKMN.csv'
p925
sI925
S'Sanders Supporter Tweets/spicetc.csv'
p926
sI926
S'Sanders Supporter Tweets/bradkovach.csv'
p927
sI927
S'Sanders Supporter Tweets/darth_rhys.csv'
p928
sI928
S'Sanders Supporter Tweets/jenngwynn4.csv'
p929
sI929
S'Sanders Supporter Tweets/hoejaston.csv'
p930
sI930
S'Sanders Supporter Tweets/idkemam.csv'
p931
sI931
S'Sanders Supporter Tweets/donnalorre666.csv'
p932
sI932
S'Sanders Supporter Tweets/angelam314.csv'
p933
sI933
S'Sanders Supporter Tweets/jennyyguaysing.csv'
p934
sI934
S'Sanders Supporter Tweets/redruddyred.csv'
p935
sI935
S'Sanders Supporter Tweets/goldentone_.csv'
p936
sI936
S'Sanders Supporter Tweets/Leepa_Faith.csv'
p937
sI937
S'Sanders Supporter Tweets/fruitbedazzle.csv'
p938
sI938
S'Sanders Supporter Tweets/tecneek253.csv'
p939
sI939
S'Sanders Supporter Tweets/unbr0ken21.csv'
p940
sI940
S'Sanders Supporter Tweets/sgteatme2012.csv'
p941
sI941
S'Sanders Supporter Tweets/D_Smith18.csv'
p942
sI942
S'Sanders Supporter Tweets/GarrettShorr.csv'
p943
sI943
S'Sanders Supporter Tweets/TheTardisDoc.csv'
p944
sI944
S'Sanders Supporter Tweets/DanceLittleAlex.csv'
p945
sI945
S'Sanders Supporter Tweets/lexwhoward.csv'
p946
sI946
S'Sanders Supporter Tweets/TheCatGentleman.csv'
p947
sI947
S'Sanders Supporter Tweets/Crm720.csv'
p948
sI948
S'Sanders Supporter Tweets/RebelWrangler.csv'
p949
sI949
S'Sanders Supporter Tweets/Talia198701.csv'
p950
sI950
S'Sanders Supporter Tweets/kat_nips.csv'
p951
sI951
S'Sanders Supporter Tweets/teabagersrmoron.csv'
p952
sI952
S'Sanders Supporter Tweets/Marnie_was_here.csv'
p953
sI953
S'Sanders Supporter Tweets/KompAREN.csv'
p954
sI954
S'Sanders Supporter Tweets/MicheleStruck.csv'
p955
sI955
S'Sanders Supporter Tweets/TgTinagibson.csv'
p956
sI956
S'Sanders Supporter Tweets/brokepimpstyles.csv'
p957
sI957
S'Sanders Supporter Tweets/Lumchan1.csv'
p958
sI958
S'Sanders Supporter Tweets/asskickandroid.csv'
p959
sI959
S'Sanders Supporter Tweets/soccer_momlegs.csv'
p960
sI960
S'Sanders Supporter Tweets/eshorr87.csv'
p961
sI961
S'Sanders Supporter Tweets/RE_TO_DUH_HAB.csv'
p962
sI962
S'Sanders Supporter Tweets/illusivegalaxy.csv'
p963
sI963
S'Sanders Supporter Tweets/OfficialMaresa.csv'
p964
sI964
S'Sanders Supporter Tweets/Brendangriffin.csv'
p965
sI965
S'Sanders Supporter Tweets/jaanneeann.csv'
p966
sI966
S'Sanders Supporter Tweets/DestiniNichol.csv'
p967
sI967
S'Sanders Supporter Tweets/thebouncingbird.csv'
p968
sI968
S'Sanders Supporter Tweets/Sir_alex_the_13.csv'
p969
sI969
S'Sanders Supporter Tweets/asJBdorightthng.csv'
p970
sI970
S'Sanders Supporter Tweets/T_Fife_.csv'
p971
sI971
S'Sanders Supporter Tweets/sjdehart58.csv'
p972
sI972
S'Sanders Supporter Tweets/MirandaaMayy.csv'
p973
sI973
S'Sanders Supporter Tweets/JosephHHerrera.csv'
p974
sI974
S'Sanders Supporter Tweets/Binja.csv'
p975
sI975
S'Sanders Supporter Tweets/_htimsylime.csv'
p976
sI976
S'Sanders Supporter Tweets/kalisauce.csv'
p977
sI977
S'Sanders Supporter Tweets/jmcharlotterutz.csv'
p978
sI978
S'Sanders Supporter Tweets/RaySlamb.csv'
p979
sI979
S'Sanders Supporter Tweets/BrunsonTanner.csv'
p980
sI980
S'Sanders Supporter Tweets/tandysamara.csv'
p981
sI981
S'Sanders Supporter Tweets/abuskir3.csv'
p982
sI982
S'Sanders Supporter Tweets/primadonnamezzo.csv'
p983
sI983
S'Sanders Supporter Tweets/StephanoTheo.csv'
p984
sI984
S'Sanders Supporter Tweets/BriannaAhron.csv'
p985
sI985
S'Sanders Supporter Tweets/nathantrios.csv'
p986
sI986
S'Sanders Supporter Tweets/jessica_danh.csv'
p987
sI987
S'Sanders Supporter Tweets/GleekAmber.csv'
p988
sI988
S'Sanders Supporter Tweets/wanderinbilly.csv'
p989
sI989
S'Sanders Supporter Tweets/mirandafrieszz.csv'
p990
sI990
S'Sanders Supporter Tweets/OfficialNikButt.csv'
p991
sI991
S'Sanders Supporter Tweets/JoNahorNah.csv'
p992
sI992
S'Sanders Supporter Tweets/mackenzib_.csv'
p993
sI993
S'Sanders Supporter Tweets/sebmeza_.csv'
p994
sI994
S'Sanders Supporter Tweets/h_mtychwk.csv'
p995
sI995
S'Sanders Supporter Tweets/GreenToneEnviro.csv'
p996
sI996
S'Sanders Supporter Tweets/TOfromthe360.csv'
p997
sI997
S'Sanders Supporter Tweets/FinniganGregory.csv'
p998
sI998
S'Sanders Supporter Tweets/dude_7597.csv'
p999
sI999
S'Sanders Supporter Tweets/fortkickass92.csv'
p1000
sI1000
S'Sanders Supporter Tweets/DallasKay.csv'
p1001
sI1001
S'Sanders Supporter Tweets/clintwj1s.csv'
p1002
sI1002
S'Sanders Supporter Tweets/mLovelyyy.csv'
p1003
sI1003
S'Sanders Supporter Tweets/ZacharyWebber.csv'
p1004
sI1004
S'Sanders Supporter Tweets/averc83.csv'
p1005
sI1005
S'Sanders Supporter Tweets/RedRedGreen.csv'
p1006
sI1006
S'Sanders Supporter Tweets/nickysmoke.csv'
p1007
sI1007
S'Sanders Supporter Tweets/dsptchsfrmexile.csv'
p1008
sI1008
S'Sanders Supporter Tweets/TheChrisAsbury.csv'
p1009
sI1009
S'Sanders Supporter Tweets/anplaysviolin.csv'
p1010
sI1010
S'Sanders Supporter Tweets/Haileylavoie.csv'
p1011
sI1011
S'Sanders Supporter Tweets/QuietNewYorker.csv'
p1012
sI1012
S'Sanders Supporter Tweets/yeddygao1.csv'
p1013
sI1013
S'Sanders Supporter Tweets/MaddieJCruz.csv'
p1014
sI1014
S'Sanders Supporter Tweets/rebecdav4.csv'
p1015
sI1015
S'Sanders Supporter Tweets/AshleighFlodin.csv'
p1016
sI1016
S'Sanders Supporter Tweets/LuziaM.csv'
p1017
sI1017
S'Sanders Supporter Tweets/EbumErin.csv'
p1018
sI1018
S'Sanders Supporter Tweets/amills73.csv'
p1019
sI1019
S'Sanders Supporter Tweets/stephankplin.csv'
p1020
sI1020
S'Sanders Supporter Tweets/eringraceface.csv'
p1021
sI1021
S'Sanders Supporter Tweets/TeddyMopar.csv'
p1022
sI1022
S'Sanders Supporter Tweets/ohilayes.csv'
p1023
sI1023
S'Sanders Supporter Tweets/arielcrook79.csv'
p1024
sI1024
S'Sanders Supporter Tweets/Elantara.csv'
p1025
sI1025
S'Sanders Supporter Tweets/ZenoRicky.csv'
p1026
sI1026
S'Sanders Supporter Tweets/SO_CAL_BORN91.csv'
p1027
sI1027
S'Sanders Supporter Tweets/_apoppyandarose.csv'
p1028
sI1028
S'Sanders Supporter Tweets/nunyadamnbness.csv'
p1029
sI1029
S'Sanders Supporter Tweets/shell_bee_leggs.csv'
p1030
sI1030
S'Sanders Supporter Tweets/stephrasbury.csv'
p1031
sI1031
S'Sanders Supporter Tweets/WyattLHarris.csv'
p1032
sI1032
S'Sanders Supporter Tweets/daneholmes95.csv'
p1033
sI1033
S'Sanders Supporter Tweets/EnvyDropDead.csv'
p1034
sI1034
S'Sanders Supporter Tweets/Emaline187.csv'
p1035
sI1035
S'Sanders Supporter Tweets/TeresaM87769771.csv'
p1036
sI1036
S'Sanders Supporter Tweets/kelmcrae.csv'
p1037
sI1037
S'Sanders Supporter Tweets/CopinHagen.csv'
p1038
sI1038
S'Sanders Supporter Tweets/ofsylvanas.csv'
p1039
sI1039
S'Sanders Supporter Tweets/sharon211.csv'
p1040
s.